target datalayout = "e-m:e-p270:32:32-p271:32:32-p272:64:64-i64:64-i128:128-f80:128-n8:16:32:64-S128"
target triple = "x86_64-pc-linux-gnu"

%class.AdaptiveWeightedAverage = type { float, i32, i32, i8, float }
%class.ThreadLocalAllocBuffer = type <{ ptr, ptr, ptr, ptr, ptr, i64, i64, i64, i64, i32, i32, i32, i32, i64, %class.AdaptiveWeightedAverage, [4 x i8] }>

@_ZN22ThreadLocalAllocBuffer32_reserve_for_allocation_prefetchE = hidden global i32 0, align 4
@_ZN13CollectedHeap22_lab_alignment_reserveE = external global i64, align 8
@MinObjAlignment = external global i32, align 4

; Function Attrs: mustprogress nounwind uwtable
define linkonce_odr hidden noundef i64 @_Z10align_downImiTnNSt9enable_ifIXcvbsr3std11is_integralIT_EE5valueEiE4typeELi0EES1_S1_T0_(i64 noundef %0, i32 noundef %1) #1 comdat {
  %3 = alloca i64, align 8
  %4 = alloca i32, align 4
  %5 = alloca i64, align 8
  store i64 %0, ptr %3, align 8
  store i32 %1, ptr %4, align 4
  %6 = load i64, ptr %3, align 8
  %7 = load i32, ptr %4, align 4
  %8 = call noundef i32 @_ZL14alignment_maskIiTnNSt9enable_ifIXcvbsr3std11is_integralIT_EE5valueEiE4typeELi0EES1_S1_(i32 noundef %7)
  %9 = sext i32 %8 to i64
  %10 = xor i64 %9, -1
  %11 = and i64 %6, %10
  store i64 %11, ptr %5, align 8
  %12 = load i64, ptr %5, align 8
  ret i64 %12
}

; Function Attrs: mustprogress nounwind uwtable
define linkonce_odr hidden noundef i64 @_Z12checked_castImmET_T0_(i64 noundef %0) #1 comdat {
  %2 = alloca i64, align 8
  %3 = alloca i64, align 8
  store i64 %0, ptr %2, align 8
  %4 = load i64, ptr %2, align 8
  store i64 %4, ptr %3, align 8
  %5 = load i64, ptr %3, align 8
  ret i64 %5
}

; Function Attrs: mustprogress nounwind uwtable
define internal noundef i32 @_ZL14alignment_maskIiTnNSt9enable_ifIXcvbsr3std11is_integralIT_EE5valueEiE4typeELi0EES1_S1_(i32 noundef %0) #1 {
  %2 = alloca i32, align 4
  store i32 %0, ptr %2, align 4
  %3 = load i32, ptr %2, align 4
  %4 = sub nsw i32 %3, 1
  ret i32 %4
}

; Function Attrs: mustprogress nounwind uwtable
define linkonce_odr hidden noundef i64 @_Z8align_upImiTnNSt9enable_ifIXcvbsr3std11is_integralIT_EE5valueEiE4typeELi0EES1_S1_T0_(i64 noundef %0, i32 noundef %1) #1 comdat {
  %3 = alloca i64, align 8
  %4 = alloca i32, align 4
  %5 = alloca i64, align 8
  store i64 %0, ptr %3, align 8
  store i32 %1, ptr %4, align 4
  %6 = load i64, ptr %3, align 8
  %7 = load i32, ptr %4, align 4
  %8 = call noundef i32 @_ZL14alignment_maskIiTnNSt9enable_ifIXcvbsr3std11is_integralIT_EE5valueEiE4typeELi0EES1_S1_(i32 noundef %7)
  %9 = sext i32 %8 to i64
  %10 = add i64 %6, %9
  %11 = call noundef i64 @_Z12checked_castImmET_T0_(i64 noundef %10)
  store i64 %11, ptr %5, align 8
  %12 = load i64, ptr %5, align 8
  %13 = load i32, ptr %4, align 4
  %14 = call noundef i64 @_Z10align_downImiTnNSt9enable_ifIXcvbsr3std11is_integralIT_EE5valueEiE4typeELi0EES1_S1_T0_(i64 noundef %12, i32 noundef %13)
  ret i64 %14
}

; Function Attrs: mustprogress nounwind uwtable
define linkonce_odr hidden noundef i64 @_Z4MAX2ImET_S0_S0_(i64 noundef %0, i64 noundef %1) #1 comdat {
  %3 = alloca i64, align 8
  %4 = alloca i64, align 8
  store i64 %0, ptr %3, align 8
  store i64 %1, ptr %4, align 8
  %5 = load i64, ptr %3, align 8
  %6 = load i64, ptr %4, align 8
  %7 = icmp ugt i64 %5, %6
  br i1 %7, label %8, label %10

8:                                                ; preds = %2
  %9 = load i64, ptr %3, align 8
  br label %12

10:                                               ; preds = %2
  %11 = load i64, ptr %4, align 8
  br label %12

12:                                               ; preds = %10, %8
  %13 = phi i64 [ %9, %8 ], [ %11, %10 ]
  ret i64 %13
}

; Function Attrs: mustprogress nounwind uwtable
define linkonce_odr hidden noundef i64 @_ZN13CollectedHeap21lab_alignment_reserveEv() #1 comdat align 2 {
  %1 = load i64, ptr @_ZN13CollectedHeap22_lab_alignment_reserveE, align 8
  ret i64 %1
}

; Function Attrs: mustprogress nounwind uwtable
define linkonce_odr hidden noundef i64 @_Z17align_object_sizeImET_S0_(i64 noundef %0) #1 comdat {
  %2 = alloca i64, align 8
  store i64 %0, ptr %2, align 8
  %3 = load i64, ptr %2, align 8
  %4 = load i32, ptr @MinObjAlignment, align 4
  %5 = call noundef i64 @_Z8align_upImiTnNSt9enable_ifIXcvbsr3std11is_integralIT_EE5valueEiE4typeELi0EES1_S1_T0_(i64 noundef %3, i32 noundef %4)
  ret i64 %5
}

; Function Attrs: mustprogress nounwind uwtable
define hidden noundef i64 @_ZN22ThreadLocalAllocBuffer11end_reserveEv() #1 align 2 {
  %1 = alloca i64, align 8
  %2 = call noundef i64 @_ZN13CollectedHeap21lab_alignment_reserveEv()
  store i64 %2, ptr %1, align 8
  %3 = load i64, ptr %1, align 8
  %4 = load i32, ptr @_ZN22ThreadLocalAllocBuffer32_reserve_for_allocation_prefetchE, align 4
  %5 = sext i32 %4 to i64
  %6 = call noundef i64 @_Z4MAX2ImET_S0_S0_(i64 noundef %3, i64 noundef %5)
  ret i64 %6
}

; Function Attrs: mustprogress nounwind uwtable
define linkonce_odr hidden noundef i64 @_ZN22ThreadLocalAllocBuffer17alignment_reserveEv() #1 comdat align 2 {
  %1 = call noundef i64 @_ZN22ThreadLocalAllocBuffer11end_reserveEv()
  %2 = call noundef i64 @_Z17align_object_sizeImET_S0_(i64 noundef %1)
  ret i64 %2
}

; Function Attrs: mustprogress nounwind uwtable
define hidden noundef ptr @_ZN22ThreadLocalAllocBuffer8hard_endEv(ptr noundef nonnull align 8 dereferenceable(116) %0) #1 align 2 {
  %2 = alloca ptr, align 8
  store ptr %0, ptr %2, align 8
  %3 = load ptr, ptr %2, align 8
  %4 = getelementptr inbounds %class.ThreadLocalAllocBuffer, ptr %3, i32 0, i32 4
  %5 = load ptr, ptr %4, align 8
  %6 = call noundef i64 @_ZN22ThreadLocalAllocBuffer17alignment_reserveEv()
  %7 = getelementptr inbounds ptr, ptr %5, i64 %6
  ret ptr %7
}