; Function Attrs: mustprogress nofree norecurse nosync nounwind willreturn memory(read, inaccessiblemem: none) uwtable
define hidden noundef ptr @_ZN22ThreadLocalAllocBuffer8hard_endEv(ptr nocapture noundef nonnull readonly align 8 dereferenceable(116) %0) local_unnamed_addr #1 align 2 {
  %2 = getelementptr inbounds i8, ptr %0, i64 32
  %3 = load ptr, ptr %2, align 8
  %4 = load i64, ptr @_ZN13CollectedHeap22_lab_alignment_reserveE, align 8
  %5 = load i32, ptr @_ZN22ThreadLocalAllocBuffer32_reserve_for_allocation_prefetchE, align 4
  %6 = sext i32 %5 to i64
  %7 = tail call noundef i64 @llvm.umax.i64(i64 %4, i64 %6)
  %8 = load i32, ptr @MinObjAlignment, align 4
  %9 = add nsw i32 %8, -1
  %10 = sext i32 %9 to i64
  %11 = add i64 %7, %10
  %12 = sub i32 0, %8
  %13 = sext i32 %12 to i64
  %14 = and i64 %11, %13
  %15 = getelementptr inbounds ptr, ptr %3, i64 %14
  ret ptr %15
}